; Function Attrs: nounwind uwtable
define ptr @l_Std_Time_Day_Offset_toHours___boxed(ptr noundef %0) local_unnamed_addr #0 {
  %2 = load ptr, ptr @l_Std_Time_Day_Offset_toHours___closed__1, align 8, !tbaa !11
  %3 = ptrtoint ptr %0 to i64
  %4 = and i64 %3, 1
  %.not.i.i = icmp eq i64 %4, 0
  br i1 %.not.i.i, label %24, label %5, !prof !13

5:                                                ; preds = %1
  %6 = ptrtoint ptr %2 to i64
  %7 = and i64 %6, 1
  %.not7.i.i = icmp eq i64 %7, 0
  br i1 %.not7.i.i, label %l_Std_Time_Day_Offset_toHours.exit.thread5, label %9, !prof !13

l_Std_Time_Day_Offset_toHours.exit.thread5:       ; preds = %5
  %8 = tail call ptr @lean_int_big_mul(ptr noundef %0, ptr noundef %2) #6
  br label %lean_dec.exit

9:                                                ; preds = %5
  %10 = shl i64 %3, 31
  %11 = ashr i64 %10, 32
  %12 = shl i64 %6, 31
  %13 = ashr i64 %12, 32
  %14 = mul nsw i64 %13, %11
  %15 = add nsw i64 %14, 2147483648
  %16 = icmp ult i64 %15, 4294967296
  br i1 %16, label %17, label %22, !prof !10

17:                                               ; preds = %9
  %18 = shl nsw i64 %14, 1
  %19 = and i64 %18, 8589934590
  %20 = or disjoint i64 %19, 1
  %21 = inttoptr i64 %20 to ptr
  br label %lean_dec.exit

22:                                               ; preds = %9
  %23 = tail call ptr @lean_big_int64_to_int(i64 noundef range(i64 -4611686016279904256, 4611686018427387905) %14) #6
  br label %lean_dec.exit

24:                                               ; preds = %1
  %25 = tail call ptr @lean_int_big_mul(ptr noundef %0, ptr noundef %2) #6
  %26 = load i32, ptr %0, align 4, !tbaa !5
  %27 = icmp sgt i32 %26, 1
  br i1 %27, label %28, label %30, !prof !10

28:                                               ; preds = %24
  %29 = add nsw i32 %26, -1
  store i32 %29, ptr %0, align 4, !tbaa !5
  br label %lean_dec.exit

30:                                               ; preds = %24
  %.not.i = icmp eq i32 %26, 0
  br i1 %.not.i, label %lean_dec.exit, label %31

31:                                               ; preds = %30
  tail call void @lean_dec_ref_cold(ptr noundef nonnull %0) #6
  br label %lean_dec.exit

lean_dec.exit:                                    ; preds = %22, %17, %31, %30, %28, %l_Std_Time_Day_Offset_toHours.exit.thread5
  %.0.i.i4 = phi ptr [ %8, %l_Std_Time_Day_Offset_toHours.exit.thread5 ], [ %25, %28 ], [ %25, %30 ], [ %25, %31 ], [ %23, %22 ], [ %21, %17 ]
  ret ptr %.0.i.i4
}